target datalayout = "e-m:e-p270:32:32-p271:32:32-p272:64:64-i64:64-i128:128-f80:128-n8:16:32:64-S128"
target triple = "x86_64-pc-linux-gnu"

@.str.55 = private unnamed_addr constant [9 x i8] c"MINTOKEN\00", align 1

; Function Attrs: nounwind uwtable
define internal zeroext i1 @gv_isupper(i32 noundef %0) #0 {
  %2 = alloca i32, align 4
  store i32 %0, ptr %2, align 4
  %3 = load i32, ptr %2, align 4
  %4 = icmp sge i32 %3, 65
  br i1 %4, label %5, label %8

5:                                                ; preds = %1
  %6 = load i32, ptr %2, align 4
  %7 = icmp sle i32 %6, 90
  br label %8

8:                                                ; preds = %5, %1
  %9 = phi i1 [ false, %1 ], [ %7, %5 ]
  ret i1 %9
}

; Function Attrs: nounwind uwtable
define internal zeroext i1 @gv_islower(i32 noundef %0) #0 {
  %2 = alloca i32, align 4
  store i32 %0, ptr %2, align 4
  %3 = load i32, ptr %2, align 4
  %4 = icmp sge i32 %3, 97
  br i1 %4, label %5, label %8

5:                                                ; preds = %1
  %6 = load i32, ptr %2, align 4
  %7 = icmp sle i32 %6, 122
  br label %8

8:                                                ; preds = %5, %1
  %9 = phi i1 [ false, %1 ], [ %7, %5 ]
  ret i1 %9
}

; Function Attrs: nounwind uwtable
define internal zeroext i1 @gv_isdigit(i32 noundef %0) #0 {
  %2 = alloca i32, align 4
  store i32 %0, ptr %2, align 4
  %3 = load i32, ptr %2, align 4
  %4 = icmp sge i32 %3, 48
  br i1 %4, label %5, label %8

5:                                                ; preds = %1
  %6 = load i32, ptr %2, align 4
  %7 = icmp sle i32 %6, 57
  br label %8

8:                                                ; preds = %5, %1
  %9 = phi i1 [ false, %1 ], [ %7, %5 ]
  ret i1 %9
}

; Function Attrs: nounwind uwtable
define internal zeroext i1 @gv_isalpha(i32 noundef %0) #0 {
  %2 = alloca i32, align 4
  store i32 %0, ptr %2, align 4
  %3 = load i32, ptr %2, align 4
  %4 = call zeroext i1 @gv_islower(i32 noundef %3)
  br i1 %4, label %8, label %5

5:                                                ; preds = %1
  %6 = load i32, ptr %2, align 4
  %7 = call zeroext i1 @gv_isupper(i32 noundef %6)
  br label %8

8:                                                ; preds = %5, %1
  %9 = phi i1 [ true, %1 ], [ %7, %5 ]
  ret i1 %9
}

; Function Attrs: nounwind uwtable
define internal zeroext i1 @gv_isalnum(i32 noundef %0) #0 {
  %2 = alloca i32, align 4
  store i32 %0, ptr %2, align 4
  %3 = load i32, ptr %2, align 4
  %4 = call zeroext i1 @gv_isalpha(i32 noundef %3)
  br i1 %4, label %8, label %5

5:                                                ; preds = %1
  %6 = load i32, ptr %2, align 4
  %7 = call zeroext i1 @gv_isdigit(i32 noundef %6)
  br label %8

8:                                                ; preds = %5, %1
  %9 = phi i1 [ true, %1 ], [ %7, %5 ]
  ret i1 %9
}

; Function Attrs: nounwind uwtable
define ptr @exop(i64 noundef %0) #0 {
  %2 = alloca ptr, align 8
  %3 = alloca i64, align 8
  %4 = alloca i64, align 8
  %5 = alloca i64, align 8
  %6 = alloca i64, align 8
  %7 = alloca i64, align 8
  store i64 %0, ptr %3, align 8
  store i64 0, ptr %4, align 8
  br label %8

8:                                                ; preds = %21, %1
  %9 = load i64, ptr %4, align 8
  %10 = getelementptr inbounds [152 x ptr], ptr @yytname, i64 0, i64 %9
  %11 = load ptr, ptr %10, align 8
  %12 = icmp ne ptr %11, null
  br i1 %12, label %13, label %24

13:                                               ; preds = %8
  %14 = load i64, ptr %4, align 8
  %15 = getelementptr inbounds [152 x ptr], ptr @yytname, i64 0, i64 %14
  %16 = load ptr, ptr %15, align 8
  %17 = call i32 @strcmp(ptr noundef %16, ptr noundef @.str.55) #16
  %18 = icmp eq i32 %17, 0
  br i1 %18, label %19, label %20

19:                                               ; preds = %13
  br label %24

20:                                               ; preds = %13
  br label %21

21:                                               ; preds = %20
  %22 = load i64, ptr %4, align 8
  %23 = add i64 %22, 1
  store i64 %23, ptr %4, align 8
  br label %8

24:                                               ; preds = %19, %8
  %25 = load i64, ptr %4, align 8
  store i64 %25, ptr %6, align 8
  store i64 %25, ptr %5, align 8
  br label %26

26:                                               ; preds = %87, %24
  %27 = load i64, ptr %5, align 8
  %28 = getelementptr inbounds [152 x ptr], ptr @yytname, i64 0, i64 %27
  %29 = load ptr, ptr %28, align 8
  %30 = icmp ne ptr %29, null
  br i1 %30, label %31, label %90

31:                                               ; preds = %26
  store i64 0, ptr %7, align 8
  br label %32

32:                                               ; preds = %61, %31
  %33 = load i64, ptr %5, align 8
  %34 = getelementptr inbounds [152 x ptr], ptr @yytname, i64 0, i64 %33
  %35 = load ptr, ptr %34, align 8
  %36 = load i64, ptr %7, align 8
  %37 = getelementptr inbounds i8, ptr %35, i64 %36
  %38 = load i8, ptr %37, align 1
  %39 = sext i8 %38 to i32
  %40 = icmp ne i32 %39, 0
  br i1 %40, label %41, label %64

41:                                               ; preds = %32
  %42 = load i64, ptr %5, align 8
  %43 = getelementptr inbounds [152 x ptr], ptr @yytname, i64 0, i64 %42
  %44 = load ptr, ptr %43, align 8
  %45 = load i64, ptr %7, align 8
  %46 = getelementptr inbounds i8, ptr %44, i64 %45
  %47 = load i8, ptr %46, align 1
  %48 = sext i8 %47 to i32
  %49 = icmp ne i32 %48, 95
  br i1 %49, label %50, label %60

50:                                               ; preds = %41
  %51 = load i64, ptr %5, align 8
  %52 = getelementptr inbounds [152 x ptr], ptr @yytname, i64 0, i64 %51
  %53 = load ptr, ptr %52, align 8
  %54 = load i64, ptr %7, align 8
  %55 = getelementptr inbounds i8, ptr %53, i64 %54
  %56 = load i8, ptr %55, align 1
  %57 = sext i8 %56 to i32
  %58 = call zeroext i1 @gv_isalnum(i32 noundef %57)
  br i1 %58, label %60, label %59

59:                                               ; preds = %50
  br label %64

60:                                               ; preds = %50, %41
  br label %61

61:                                               ; preds = %60
  %62 = load i64, ptr %7, align 8
  %63 = add i64 %62, 1
  store i64 %63, ptr %7, align 8
  br label %32

64:                                               ; preds = %59, %32
  %65 = load i64, ptr %5, align 8
  %66 = getelementptr inbounds [152 x ptr], ptr @yytname, i64 0, i64 %65
  %67 = load ptr, ptr %66, align 8
  %68 = load i64, ptr %7, align 8
  %69 = getelementptr inbounds i8, ptr %67, i64 %68
  %70 = load i8, ptr %69, align 1
  %71 = sext i8 %70 to i32
  %72 = icmp ne i32 %71, 0
  br i1 %72, label %73, label %74

73:                                               ; preds = %64
  br label %87

74:                                               ; preds = %64
  %75 = load i64, ptr %6, align 8
  %76 = load i64, ptr %3, align 8
  %77 = load i64, ptr %4, align 8
  %78 = add i64 %76, %77
  %79 = icmp eq i64 %75, %78
  br i1 %79, label %80, label %84

80:                                               ; preds = %74
  %81 = load i64, ptr %5, align 8
  %82 = getelementptr inbounds [152 x ptr], ptr @yytname, i64 0, i64 %81
  %83 = load ptr, ptr %82, align 8
  store ptr %83, ptr %2, align 8
  br label %91

84:                                               ; preds = %74
  %85 = load i64, ptr %6, align 8
  %86 = add i64 %85, 1
  store i64 %86, ptr %6, align 8
  br label %87

87:                                               ; preds = %84, %73
  %88 = load i64, ptr %5, align 8
  %89 = add i64 %88, 1
  store i64 %89, ptr %5, align 8
  br label %26

90:                                               ; preds = %26
  store ptr null, ptr %2, align 8
  br label %91

91:                                               ; preds = %90, %80
  %92 = load ptr, ptr %2, align 8
  ret ptr %92
}