; Function Attrs: nofree nounwind memory(read, inaccessiblemem: none) uwtable
define ptr @exop(i64 noundef %0) local_unnamed_addr #15 {
  br label %2

2:                                                ; preds = %1, %7
  %.02234 = phi i64 [ 0, %1 ], [ %8, %7 ]
  %3 = getelementptr inbounds nuw [152 x ptr], ptr @yytname, i64 0, i64 %.02234
  %4 = load ptr, ptr %3, align 8
  %5 = tail call i32 @strcmp(ptr noundef nonnull dereferenceable(1) %4, ptr noundef nonnull dereferenceable(9) @.str.55) #27
  %6 = icmp eq i32 %5, 0
  br i1 %6, label %9, label %7

7:                                                ; preds = %2
  %8 = add nuw nsw i64 %.02234, 1
  %.not = icmp eq i64 %8, 151
  br i1 %.not, label %._crit_edge, label %2

9:                                                ; preds = %2
  %.not2635 = icmp eq i64 %.02234, 151
  br i1 %.not2635, label %._crit_edge, label %.preheader.lr.ph

.preheader.lr.ph:                                 ; preds = %9
  %10 = add i64 %.02234, %0
  br label %.preheader

.preheader:                                       ; preds = %.preheader.lr.ph, %30
  %.02037 = phi i64 [ %.02234, %.preheader.lr.ph ], [ %.1, %30 ]
  %.02136 = phi i64 [ %.02234, %.preheader.lr.ph ], [ %31, %30 ]
  %11 = getelementptr inbounds nuw [152 x ptr], ptr @yytname, i64 0, i64 %.02136
  %12 = load ptr, ptr %11, align 8
  br label %13

13:                                               ; preds = %.preheader, %24
  %.0 = phi i64 [ %25, %24 ], [ 0, %.preheader ]
  %14 = getelementptr inbounds i8, ptr %12, i64 %.0
  %15 = load i8, ptr %14, align 1
  switch i8 %15, label %16 [
    i8 0, label %.thread
    i8 95, label %24
  ]

16:                                               ; preds = %13
  %17 = sext i8 %15 to i32
  %18 = and i32 %17, -33
  %19 = add nsw i32 %18, -65
  %20 = icmp ult i32 %19, 26
  %21 = add nsw i32 %17, -48
  %22 = icmp ult i32 %21, 10
  %23 = select i1 %20, i1 true, i1 %22
  br i1 %23, label %24, label %26

24:                                               ; preds = %13, %16
  %25 = add i64 %.0, 1
  br label %13

26:                                               ; preds = %16
  %.not29 = icmp eq i8 %15, 0
  br i1 %.not29, label %.thread, label %30

.thread:                                          ; preds = %13, %26
  %27 = icmp eq i64 %.02037, %10
  br i1 %27, label %._crit_edge, label %28

28:                                               ; preds = %.thread
  %29 = add i64 %.02037, 1
  br label %30

30:                                               ; preds = %26, %28
  %.1 = phi i64 [ %.02037, %26 ], [ %29, %28 ]
  %31 = add nuw nsw i64 %.02136, 1
  %.not26 = icmp eq i64 %31, 151
  br i1 %.not26, label %._crit_edge, label %.preheader

._crit_edge:                                      ; preds = %7, %.thread, %30, %9
  %.023 = phi ptr [ null, %9 ], [ null, %30 ], [ %12, %.thread ], [ null, %7 ]
  ret ptr %.023
}